target datalayout = "e-m:e-p270:32:32-p271:32:32-p272:64:64-i64:64-i128:128-f80:128-n8:16:32:64-S128"
target triple = "x86_64-pc-linux-gnu"

%struct.AVCodecContext = type { ptr, i32, i32, ptr, i32, i32, ptr, ptr, ptr, i64, i32, i32, ptr, i32, %struct.AVRational, %struct.AVRational, %struct.AVRational, i32, i32, i32, i32, i32, %struct.AVRational, i32, i32, i32, i32, i32, i32, i32, i32, i32, i32, i32, ptr, ptr, i32, float, float, float, float, float, float, float, float, float, i32, i32, i32, i32, i32, i32, i32, i32, i32, i32, i32, i32, ptr, ptr, ptr, i32, i32, i32, i32, i32, i32, i32, i32, i32, i32, %struct.AVChannelLayout, i32, i32, i32, i32, i32, i32, i32, i32, ptr, i32, i32, i32, float, float, i32, i32, i32, i32, i32, ptr, i64, i64, float, float, i32, i32, ptr, ptr, i32, i32, i32, i32, i32, ptr, ptr, ptr, ptr, i32, i32, [8 x i64], i32, i32, i32, i32, i32, i32, i32, ptr, ptr, i32, i32, i32, i32, i32, i32, i32, i32, i32, i32, ptr, ptr, i32, i32, ptr, ptr, ptr, ptr, i32, i32, i64, i32, i32, i64, ptr, i64, ptr, i32, ptr, i32 }
%struct.AVRational = type { i32, i32 }
%struct.AVChannelLayout = type { i32, i32, %union.anon.0, ptr }
%union.anon.0 = type { i64 }
%struct.TwinVQContext = type { ptr, ptr, [3 x ptr], [3 x ptr], ptr, i32, [2 x [20 x float]], [3 x [2 x [40 x float]]], [4 x [4096 x i16]], [4 x [2 x i8]], [4 x i8], [2 x [4 x [2 x i8]]], [4 x i32], [4 x i32], ptr, ptr, ptr, [2 x i32], i32, [3 x ptr], ptr, i32, i32, i32, [2 x %struct.TwinVQFrameData], i32, ptr, ptr, ptr }
%struct.TwinVQFrameData = type { i32, i32, [1024 x i8], [60 x i8], [2 x i8], [32 x i8], [2 x [16 x [4 x i8]]], [2 x [16 x i8]], [2 x i8], [2 x [4 x i8]], [2 x i8], [2 x i32], [2 x i32] }
%struct.TwinVQModeTab = type { [3 x %struct.TwinVQFrameMode], i16, i8, ptr, i8, i8, i8, i8, ptr, i8, i8, i8, i8, i16 }
%struct.TwinVQFrameMode = type { i8, ptr, i8, ptr, i8, i8, ptr, ptr, i8 }

@.str.2 = private unnamed_addr constant [33 x i8] c"Missing or incomplete extradata\0A\00", align 1
@.str.3 = private unnamed_addr constant [25 x i8] c"Unsupported sample rate\0A\00", align 1
@.str.4 = private unnamed_addr constant [36 x i8] c"Unsupported number of channels: %i\0A\00", align 1
@.str.5 = private unnamed_addr constant [34 x i8] c"Bad bitrate per channel value %d\0A\00", align 1
@.str.6 = private unnamed_addr constant [59 x i8] c"This version does not support %d kHz - %d kbit/s/ch mode.\0A\00", align 1
@.str.7 = private unnamed_addr constant [50 x i8] c"VQF TwinVQ should have only one frame per packet\0A\00", align 1

; Function Attrs: alwaysinline nounwind willreturn memory(none) uwtable
define internal i32 @av_bswap32(i32 noundef %0) #3 {
  %2 = alloca i32, align 4
  store i32 %0, ptr %2, align 4, !tbaa !34
  %3 = load i32, ptr %2, align 4, !tbaa !34
  %4 = shl i32 %3, 8
  %5 = and i32 %4, 65280
  %6 = load i32, ptr %2, align 4, !tbaa !34
  %7 = lshr i32 %6, 8
  %8 = and i32 %7, 255
  %9 = or i32 %5, %8
  %10 = shl i32 %9, 16
  %11 = load i32, ptr %2, align 4, !tbaa !34
  %12 = lshr i32 %11, 16
  %13 = shl i32 %12, 8
  %14 = and i32 %13, 65280
  %15 = load i32, ptr %2, align 4, !tbaa !34
  %16 = lshr i32 %15, 16
  %17 = lshr i32 %16, 8
  %18 = and i32 %17, 255
  %19 = or i32 %14, %18
  %20 = or i32 %10, %19
  ret i32 %20
}

; Function Attrs: cold nounwind optsize uwtable
define internal i32 @twinvq_decode_init(ptr noundef %0) #0 {
  %2 = alloca i32, align 4
  %3 = alloca ptr, align 8
  %4 = alloca i32, align 4
  %5 = alloca i32, align 4
  %6 = alloca i32, align 4
  %7 = alloca ptr, align 8
  %8 = alloca i32, align 4
  store ptr %0, ptr %3, align 8, !tbaa !4
  call void @llvm.lifetime.start.p0(i64 4, ptr %4) #7
  call void @llvm.lifetime.start.p0(i64 4, ptr %5) #7
  call void @llvm.lifetime.start.p0(i64 4, ptr %6) #7
  call void @llvm.lifetime.start.p0(i64 8, ptr %7) #7
  %9 = load ptr, ptr %3, align 8, !tbaa !4
  %10 = getelementptr inbounds nuw %struct.AVCodecContext, ptr %9, i32 0, i32 6
  %11 = load ptr, ptr %10, align 8, !tbaa !9
  store ptr %11, ptr %7, align 8, !tbaa !29
  %12 = load ptr, ptr %3, align 8, !tbaa !4
  %13 = getelementptr inbounds nuw %struct.AVCodecContext, ptr %12, i32 0, i32 12
  %14 = load ptr, ptr %13, align 8, !tbaa !31
  %15 = icmp ne ptr %14, null
  br i1 %15, label %16, label %21

16:                                               ; preds = %1
  %17 = load ptr, ptr %3, align 8, !tbaa !4
  %18 = getelementptr inbounds nuw %struct.AVCodecContext, ptr %17, i32 0, i32 13
  %19 = load i32, ptr %18, align 8, !tbaa !32
  %20 = icmp slt i32 %19, 12
  br i1 %20, label %21, label %23

21:                                               ; preds = %16, %1
  %22 = load ptr, ptr %3, align 8, !tbaa !4
  call void (ptr, i32, ptr, ...) @av_log(ptr noundef %22, i32 noundef 16, ptr noundef @.str.2)
  store i32 -1094995529, ptr %2, align 4
  store i32 1, ptr %8, align 4
  br label %187

23:                                               ; preds = %16
  %24 = load ptr, ptr %3, align 8, !tbaa !4
  %25 = getelementptr inbounds nuw %struct.AVCodecContext, ptr %24, i32 0, i32 12
  %26 = load ptr, ptr %25, align 8, !tbaa !31
  %27 = load i32, ptr %26, align 1, !tbaa !33
  %28 = call i32 @av_bswap32(i32 noundef %27) #8
  %29 = add i32 %28, 1
  store i32 %29, ptr %6, align 4, !tbaa !34
  %30 = load ptr, ptr %3, align 8, !tbaa !4
  %31 = getelementptr inbounds nuw %struct.AVCodecContext, ptr %30, i32 0, i32 12
  %32 = load ptr, ptr %31, align 8, !tbaa !31
  %33 = getelementptr inbounds i8, ptr %32, i64 4
  %34 = load i32, ptr %33, align 1, !tbaa !33
  %35 = call i32 @av_bswap32(i32 noundef %34) #8
  %36 = mul i32 %35, 1000
  %37 = zext i32 %36 to i64
  %38 = load ptr, ptr %3, align 8, !tbaa !4
  %39 = getelementptr inbounds nuw %struct.AVCodecContext, ptr %38, i32 0, i32 9
  store i64 %37, ptr %39, align 8, !tbaa !35
  %40 = load ptr, ptr %3, align 8, !tbaa !4
  %41 = getelementptr inbounds nuw %struct.AVCodecContext, ptr %40, i32 0, i32 12
  %42 = load ptr, ptr %41, align 8, !tbaa !31
  %43 = getelementptr inbounds i8, ptr %42, i64 8
  %44 = load i32, ptr %43, align 1, !tbaa !33
  %45 = call i32 @av_bswap32(i32 noundef %44) #8
  store i32 %45, ptr %4, align 4, !tbaa !34
  %46 = load i32, ptr %4, align 4, !tbaa !34
  %47 = icmp slt i32 %46, 8
  br i1 %47, label %51, label %48

48:                                               ; preds = %23
  %49 = load i32, ptr %4, align 4, !tbaa !34
  %50 = icmp sgt i32 %49, 44
  br i1 %50, label %51, label %53

51:                                               ; preds = %48, %23
  %52 = load ptr, ptr %3, align 8, !tbaa !4
  call void (ptr, i32, ptr, ...) @av_log(ptr noundef %52, i32 noundef 16, ptr noundef @.str.3)
  store i32 -1094995529, ptr %2, align 4
  store i32 1, ptr %8, align 4
  br label %187

53:                                               ; preds = %48
  %54 = load i32, ptr %4, align 4, !tbaa !34
  switch i32 %54, label %64 [
    i32 44, label %55
    i32 22, label %58
    i32 11, label %61
  ]

55:                                               ; preds = %53
  %56 = load ptr, ptr %3, align 8, !tbaa !4
  %57 = getelementptr inbounds nuw %struct.AVCodecContext, ptr %56, i32 0, i32 69
  store i32 44100, ptr %57, align 8, !tbaa !36
  br label %69

58:                                               ; preds = %53
  %59 = load ptr, ptr %3, align 8, !tbaa !4
  %60 = getelementptr inbounds nuw %struct.AVCodecContext, ptr %59, i32 0, i32 69
  store i32 22050, ptr %60, align 8, !tbaa !36
  br label %69

61:                                               ; preds = %53
  %62 = load ptr, ptr %3, align 8, !tbaa !4
  %63 = getelementptr inbounds nuw %struct.AVCodecContext, ptr %62, i32 0, i32 69
  store i32 11025, ptr %63, align 8, !tbaa !36
  br label %69

64:                                               ; preds = %53
  %65 = load i32, ptr %4, align 4, !tbaa !34
  %66 = mul nsw i32 %65, 1000
  %67 = load ptr, ptr %3, align 8, !tbaa !4
  %68 = getelementptr inbounds nuw %struct.AVCodecContext, ptr %67, i32 0, i32 69
  store i32 %66, ptr %68, align 8, !tbaa !36
  br label %69

69:                                               ; preds = %64, %61, %58, %55
  %70 = load i32, ptr %6, align 4, !tbaa !34
  %71 = icmp sle i32 %70, 0
  br i1 %71, label %75, label %72

72:                                               ; preds = %69
  %73 = load i32, ptr %6, align 4, !tbaa !34
  %74 = icmp sgt i32 %73, 2
  br i1 %74, label %75, label %78

75:                                               ; preds = %72, %69
  %76 = load ptr, ptr %3, align 8, !tbaa !4
  %77 = load i32, ptr %6, align 4, !tbaa !34
  call void (ptr, i32, ptr, ...) @av_log(ptr noundef %76, i32 noundef 16, ptr noundef @.str.4, i32 noundef %77)
  store i32 -1, ptr %2, align 4
  store i32 1, ptr %8, align 4
  br label %187

78:                                               ; preds = %72
  %79 = load ptr, ptr %3, align 8, !tbaa !4
  %80 = getelementptr inbounds nuw %struct.AVCodecContext, ptr %79, i32 0, i32 71
  call void @av_channel_layout_uninit(ptr noundef %80)
  %81 = load ptr, ptr %3, align 8, !tbaa !4
  %82 = getelementptr inbounds nuw %struct.AVCodecContext, ptr %81, i32 0, i32 71
  %83 = load i32, ptr %6, align 4, !tbaa !34
  call void @av_channel_layout_default(ptr noundef %82, i32 noundef %83)
  %84 = load ptr, ptr %3, align 8, !tbaa !4
  %85 = getelementptr inbounds nuw %struct.AVCodecContext, ptr %84, i32 0, i32 9
  %86 = load i64, ptr %85, align 8, !tbaa !35
  %87 = load i32, ptr %6, align 4, !tbaa !34
  %88 = mul nsw i32 1000, %87
  %89 = sext i32 %88 to i64
  %90 = sdiv i64 %86, %89
  %91 = trunc i64 %90 to i32
  store i32 %91, ptr %5, align 4, !tbaa !34
  %92 = load i32, ptr %5, align 4, !tbaa !34
  %93 = icmp slt i32 %92, 8
  br i1 %93, label %97, label %94

94:                                               ; preds = %78
  %95 = load i32, ptr %5, align 4, !tbaa !34
  %96 = icmp sgt i32 %95, 48
  br i1 %96, label %97, label %100

97:                                               ; preds = %94, %78
  %98 = load ptr, ptr %3, align 8, !tbaa !4
  %99 = load i32, ptr %5, align 4, !tbaa !34
  call void (ptr, i32, ptr, ...) @av_log(ptr noundef %98, i32 noundef 16, ptr noundef @.str.5, i32 noundef %99)
  store i32 -1094995529, ptr %2, align 4
  store i32 1, ptr %8, align 4
  br label %187

100:                                              ; preds = %94
  %101 = load i32, ptr %4, align 4, !tbaa !34
  %102 = shl i32 %101, 8
  %103 = load i32, ptr %5, align 4, !tbaa !34
  %104 = add nsw i32 %102, %103
  switch i32 %104, label %132 [
    i32 2056, label %105
    i32 2824, label %108
    i32 2826, label %111
    i32 4112, label %114
    i32 5652, label %117
    i32 5656, label %120
    i32 5664, label %123
    i32 11304, label %126
    i32 11312, label %129
  ]

105:                                              ; preds = %100
  %106 = load ptr, ptr %7, align 8, !tbaa !29
  %107 = getelementptr inbounds nuw %struct.TwinVQContext, ptr %106, i32 0, i32 4
  store ptr @mode_08_08, ptr %107, align 8, !tbaa !37
  br label %136

108:                                              ; preds = %100
  %109 = load ptr, ptr %7, align 8, !tbaa !29
  %110 = getelementptr inbounds nuw %struct.TwinVQContext, ptr %109, i32 0, i32 4
  store ptr @mode_11_08, ptr %110, align 8, !tbaa !37
  br label %136

111:                                              ; preds = %100
  %112 = load ptr, ptr %7, align 8, !tbaa !29
  %113 = getelementptr inbounds nuw %struct.TwinVQContext, ptr %112, i32 0, i32 4
  store ptr @mode_11_10, ptr %113, align 8, !tbaa !37
  br label %136

114:                                              ; preds = %100
  %115 = load ptr, ptr %7, align 8, !tbaa !29
  %116 = getelementptr inbounds nuw %struct.TwinVQContext, ptr %115, i32 0, i32 4
  store ptr @mode_16_16, ptr %116, align 8, !tbaa !37
  br label %136

117:                                              ; preds = %100
  %118 = load ptr, ptr %7, align 8, !tbaa !29
  %119 = getelementptr inbounds nuw %struct.TwinVQContext, ptr %118, i32 0, i32 4
  store ptr @mode_22_20, ptr %119, align 8, !tbaa !37
  br label %136

120:                                              ; preds = %100
  %121 = load ptr, ptr %7, align 8, !tbaa !29
  %122 = getelementptr inbounds nuw %struct.TwinVQContext, ptr %121, i32 0, i32 4
  store ptr @mode_22_24, ptr %122, align 8, !tbaa !37
  br label %136

123:                                              ; preds = %100
  %124 = load ptr, ptr %7, align 8, !tbaa !29
  %125 = getelementptr inbounds nuw %struct.TwinVQContext, ptr %124, i32 0, i32 4
  store ptr @mode_22_32, ptr %125, align 8, !tbaa !37
  br label %136

126:                                              ; preds = %100
  %127 = load ptr, ptr %7, align 8, !tbaa !29
  %128 = getelementptr inbounds nuw %struct.TwinVQContext, ptr %127, i32 0, i32 4
  store ptr @mode_44_40, ptr %128, align 8, !tbaa !37
  br label %136

129:                                              ; preds = %100
  %130 = load ptr, ptr %7, align 8, !tbaa !29
  %131 = getelementptr inbounds nuw %struct.TwinVQContext, ptr %130, i32 0, i32 4
  store ptr @mode_44_48, ptr %131, align 8, !tbaa !37
  br label %136

132:                                              ; preds = %100
  %133 = load ptr, ptr %3, align 8, !tbaa !4
  %134 = load i32, ptr %4, align 4, !tbaa !34
  %135 = load i32, ptr %4, align 4, !tbaa !34
  call void (ptr, i32, ptr, ...) @av_log(ptr noundef %133, i32 noundef 16, ptr noundef @.str.6, i32 noundef %134, i32 noundef %135)
  store i32 -1, ptr %2, align 4
  store i32 1, ptr %8, align 4
  br label %187

136:                                              ; preds = %129, %126, %123, %120, %117, %114, %111, %108, %105
  %137 = load ptr, ptr %7, align 8, !tbaa !29
  %138 = getelementptr inbounds nuw %struct.TwinVQContext, ptr %137, i32 0, i32 25
  store i32 0, ptr %138, align 4, !tbaa !42
  %139 = load ptr, ptr %7, align 8, !tbaa !29
  %140 = getelementptr inbounds nuw %struct.TwinVQContext, ptr %139, i32 0, i32 26
  store ptr @twinvq_read_bitstream, ptr %140, align 8, !tbaa !43
  %141 = load ptr, ptr %7, align 8, !tbaa !29
  %142 = getelementptr inbounds nuw %struct.TwinVQContext, ptr %141, i32 0, i32 27
  store ptr @dec_bark_env, ptr %142, align 8, !tbaa !44
  %143 = load ptr, ptr %7, align 8, !tbaa !29
  %144 = getelementptr inbounds nuw %struct.TwinVQContext, ptr %143, i32 0, i32 28
  store ptr @decode_ppc, ptr %144, align 8, !tbaa !45
  %145 = load ptr, ptr %3, align 8, !tbaa !4
  %146 = getelementptr inbounds nuw %struct.AVCodecContext, ptr %145, i32 0, i32 9
  %147 = load i64, ptr %146, align 8, !tbaa !35
  %148 = load ptr, ptr %7, align 8, !tbaa !29
  %149 = getelementptr inbounds nuw %struct.TwinVQContext, ptr %148, i32 0, i32 4
  %150 = load ptr, ptr %149, align 8, !tbaa !37
  %151 = getelementptr inbounds nuw %struct.TwinVQModeTab, ptr %150, i32 0, i32 1
  %152 = load i16, ptr %151, align 8, !tbaa !46
  %153 = zext i16 %152 to i64
  %154 = mul nsw i64 %147, %153
  %155 = load ptr, ptr %3, align 8, !tbaa !4
  %156 = getelementptr inbounds nuw %struct.AVCodecContext, ptr %155, i32 0, i32 69
  %157 = load i32, ptr %156, align 8, !tbaa !36
  %158 = sext i32 %157 to i64
  %159 = sdiv i64 %154, %158
  %160 = add nsw i64 %159, 8
  %161 = trunc i64 %160 to i32
  %162 = load ptr, ptr %7, align 8, !tbaa !29
  %163 = getelementptr inbounds nuw %struct.TwinVQContext, ptr %162, i32 0, i32 21
  store i32 %161, ptr %163, align 8, !tbaa !49
  %164 = load ptr, ptr %7, align 8, !tbaa !29
  %165 = getelementptr inbounds nuw %struct.TwinVQContext, ptr %164, i32 0, i32 5
  store i32 0, ptr %165, align 8, !tbaa !50
  %166 = load ptr, ptr %3, align 8, !tbaa !4
  %167 = getelementptr inbounds nuw %struct.AVCodecContext, ptr %166, i32 0, i32 73
  %168 = load i32, ptr %167, align 4, !tbaa !51
  %169 = icmp ne i32 %168, 0
  br i1 %169, label %170, label %184

170:                                              ; preds = %136
  %171 = load ptr, ptr %3, align 8, !tbaa !4
  %172 = getelementptr inbounds nuw %struct.AVCodecContext, ptr %171, i32 0, i32 73
  %173 = load i32, ptr %172, align 4, !tbaa !51
  %174 = sext i32 %173 to i64
  %175 = mul nsw i64 %174, 8
  %176 = load ptr, ptr %7, align 8, !tbaa !29
  %177 = getelementptr inbounds nuw %struct.TwinVQContext, ptr %176, i32 0, i32 21
  %178 = load i32, ptr %177, align 8, !tbaa !49
  %179 = sext i32 %178 to i64
  %180 = sdiv i64 %175, %179
  %181 = icmp sgt i64 %180, 1
  br i1 %181, label %182, label %184

182:                                              ; preds = %170
  %183 = load ptr, ptr %3, align 8, !tbaa !4
  call void (ptr, i32, ptr, ...) @av_log(ptr noundef %183, i32 noundef 16, ptr noundef @.str.7)
  store i32 -1094995529, ptr %2, align 4
  store i32 1, ptr %8, align 4
  br label %187

184:                                              ; preds = %170, %136
  %185 = load ptr, ptr %3, align 8, !tbaa !4
  %186 = call i32 @ff_twinvq_decode_init(ptr noundef %185)
  store i32 %186, ptr %2, align 4
  store i32 1, ptr %8, align 4
  br label %187

187:                                              ; preds = %184, %182, %132, %97, %75, %51, %21
  call void @llvm.lifetime.end.p0(i64 8, ptr %7) #7
  call void @llvm.lifetime.end.p0(i64 4, ptr %6) #7
  call void @llvm.lifetime.end.p0(i64 4, ptr %5) #7
  call void @llvm.lifetime.end.p0(i64 4, ptr %4) #7
  %188 = load i32, ptr %2, align 4
  ret i32 %188
}