; Function Attrs: cold nounwind optsize uwtable
define internal i32 @twinvq_decode_init(ptr noundef %0) #0 {
  %2 = getelementptr inbounds nuw i8, ptr %0, i64 32
  %3 = load ptr, ptr %2, align 8, !tbaa !4
  %4 = getelementptr inbounds nuw i8, ptr %0, i64 72
  %5 = load ptr, ptr %4, align 8, !tbaa !27
  %.not = icmp eq ptr %5, null
  br i1 %.not, label %10, label %6

6:                                                ; preds = %1
  %7 = getelementptr inbounds nuw i8, ptr %0, i64 80
  %8 = load i32, ptr %7, align 8, !tbaa !28
  %9 = icmp slt i32 %8, 12
  br i1 %9, label %10, label %11

10:                                               ; preds = %6, %1
  tail call void (ptr, i32, ptr, ...) @av_log(ptr noundef nonnull %0, i32 noundef 16, ptr noundef nonnull @.str.2) #6
  br label %84

11:                                               ; preds = %6
  %12 = load i32, ptr %5, align 1, !tbaa !29
  %13 = tail call i32 @llvm.bswap.i32(i32 %12)
  %14 = add i32 %13, 1
  %15 = getelementptr inbounds nuw i8, ptr %5, i64 4
  %16 = load i32, ptr %15, align 1, !tbaa !29
  %17 = tail call i32 @llvm.bswap.i32(i32 %16)
  %18 = mul i32 %17, 1000
  %19 = zext i32 %18 to i64
  %20 = getelementptr inbounds nuw i8, ptr %0, i64 56
  store i64 %19, ptr %20, align 8, !tbaa !30
  %21 = getelementptr inbounds nuw i8, ptr %5, i64 8
  %22 = load i32, ptr %21, align 1, !tbaa !29
  %23 = tail call i32 @llvm.bswap.i32(i32 %22)
  %24 = add i32 %23, -45
  %or.cond = icmp ult i32 %24, -37
  br i1 %or.cond, label %25, label %26

25:                                               ; preds = %11
  tail call void (ptr, i32, ptr, ...) @av_log(ptr noundef nonnull %0, i32 noundef 16, ptr noundef nonnull @.str.3) #6
  br label %84

26:                                               ; preds = %11
  switch i32 %23, label %29 [
    i32 44, label %31
    i32 22, label %27
    i32 11, label %28
  ]

27:                                               ; preds = %26
  br label %31

28:                                               ; preds = %26
  br label %31

29:                                               ; preds = %26
  %30 = mul nuw nsw i32 %23, 1000
  br label %31

31:                                               ; preds = %26, %29, %28, %27
  %.sink = phi i32 [ %30, %29 ], [ 11025, %28 ], [ 22050, %27 ], [ 44100, %26 ]
  %32 = getelementptr inbounds nuw i8, ptr %0, i64 344
  store i32 %.sink, ptr %32, align 8, !tbaa !31
  %or.cond3 = icmp ugt i32 %13, 1
  br i1 %or.cond3, label %33, label %34

33:                                               ; preds = %31
  tail call void (ptr, i32, ptr, ...) @av_log(ptr noundef nonnull %0, i32 noundef 16, ptr noundef nonnull @.str.4, i32 noundef %14) #6
  br label %84

34:                                               ; preds = %31
  %35 = getelementptr inbounds nuw i8, ptr %0, i64 352
  tail call void @av_channel_layout_uninit(ptr noundef nonnull %35) #6
  tail call void @av_channel_layout_default(ptr noundef nonnull %35, i32 noundef %14) #6
  %36 = load i64, ptr %20, align 8, !tbaa !30
  %37 = mul nuw nsw i32 %14, 1000
  %38 = zext nneg i32 %37 to i64
  %39 = sdiv i64 %36, %38
  %40 = trunc i64 %39 to i32
  %41 = add i32 %40, -49
  %or.cond5 = icmp ult i32 %41, -41
  br i1 %or.cond5, label %42, label %43

42:                                               ; preds = %34
  tail call void (ptr, i32, ptr, ...) @av_log(ptr noundef nonnull %0, i32 noundef 16, ptr noundef nonnull @.str.5, i32 noundef %40) #6
  br label %84

43:                                               ; preds = %34
  %44 = shl nuw nsw i32 %23, 8
  %45 = or disjoint i32 %44, %40
  switch i32 %45, label %54 [
    i32 2056, label %55
    i32 2824, label %46
    i32 2826, label %47
    i32 4112, label %48
    i32 5652, label %49
    i32 5656, label %50
    i32 5664, label %51
    i32 11304, label %52
    i32 11312, label %53
  ]

46:                                               ; preds = %43
  br label %55

47:                                               ; preds = %43
  br label %55

48:                                               ; preds = %43
  br label %55

49:                                               ; preds = %43
  br label %55

50:                                               ; preds = %43
  br label %55

51:                                               ; preds = %43
  br label %55

52:                                               ; preds = %43
  br label %55

53:                                               ; preds = %43
  br label %55

54:                                               ; preds = %43
  tail call void (ptr, i32, ptr, ...) @av_log(ptr noundef nonnull %0, i32 noundef 16, ptr noundef nonnull @.str.6, i32 noundef %23, i32 noundef %23) #6
  br label %84

55:                                               ; preds = %43, %53, %52, %51, %50, %49, %48, %47, %46
  %mode_44_48.sink = phi ptr [ @mode_44_48, %53 ], [ @mode_44_40, %52 ], [ @mode_22_32, %51 ], [ @mode_22_24, %50 ], [ @mode_22_20, %49 ], [ @mode_16_16, %48 ], [ @mode_11_10, %47 ], [ @mode_11_08, %46 ], [ @mode_08_08, %43 ]
  %56 = getelementptr inbounds nuw i8, ptr %3, i64 64
  store ptr %mode_44_48.sink, ptr %56, align 8, !tbaa !32
  %57 = getelementptr inbounds nuw i8, ptr %3, i64 36740
  store i32 0, ptr %57, align 4, !tbaa !38
  %58 = getelementptr inbounds nuw i8, ptr %3, i64 36744
  store ptr @twinvq_read_bitstream, ptr %58, align 8, !tbaa !39
  %59 = getelementptr inbounds nuw i8, ptr %3, i64 36752
  store ptr @dec_bark_env, ptr %59, align 8, !tbaa !40
  %60 = getelementptr inbounds nuw i8, ptr %3, i64 36760
  store ptr @decode_ppc, ptr %60, align 8, !tbaa !41
  %61 = getelementptr inbounds nuw i8, ptr %mode_44_48.sink, i64 192
  %62 = load i16, ptr %61, align 8, !tbaa !42
  %63 = zext i16 %62 to i64
  %64 = mul nsw i64 %36, %63
  %65 = getelementptr inbounds nuw i8, ptr %0, i64 344
  %66 = load i32, ptr %65, align 8, !tbaa !31
  %67 = sext i32 %66 to i64
  %68 = sdiv i64 %64, %67
  %69 = trunc i64 %68 to i32
  %70 = add i32 %69, 8
  %71 = getelementptr inbounds nuw i8, ptr %3, i64 34096
  store i32 %70, ptr %71, align 8, !tbaa !45
  %72 = getelementptr inbounds nuw i8, ptr %3, i64 72
  store i32 0, ptr %72, align 8, !tbaa !46
  %73 = getelementptr inbounds nuw i8, ptr %0, i64 380
  %74 = load i32, ptr %73, align 4, !tbaa !47
  %.not68 = icmp eq i32 %74, 0
  br i1 %.not68, label %82, label %75

75:                                               ; preds = %55
  %76 = sext i32 %74 to i64
  %77 = shl nsw i64 %76, 3
  %78 = sext i32 %70 to i64
  %79 = sdiv i64 %77, %78
  %80 = icmp sgt i64 %79, 1
  br i1 %80, label %81, label %82

81:                                               ; preds = %75
  tail call void (ptr, i32, ptr, ...) @av_log(ptr noundef nonnull %0, i32 noundef 16, ptr noundef nonnull @.str.7) #6
  br label %84

82:                                               ; preds = %75, %55
  %83 = tail call i32 @ff_twinvq_decode_init(ptr noundef nonnull %0) #6
  br label %84

84:                                               ; preds = %82, %81, %54, %42, %33, %25, %10
  %.0 = phi i32 [ -1094995529, %10 ], [ -1094995529, %25 ], [ -1, %33 ], [ -1094995529, %42 ], [ -1, %54 ], [ -1094995529, %81 ], [ %83, %82 ]
  ret i32 %.0
}